; Function Attrs: mustprogress nounwind uwtable
define noundef nonnull align 8 dereferenceable(16) ptr @_ZNK24json11_internal_lightgbm9JsonValueixERKNSt7__cxx1112basic_stringIcSt11char_traitsIcESaIcEEE(ptr nocapture nonnull readnone align 8 %0, ptr nocapture nonnull readnone align 8 %1) unnamed_addr #2 align 2 {
  %3 = load atomic i8, ptr @_ZGVZN24json11_internal_lightgbmL11static_nullEvE9json_null acquire, align 8
  %4 = icmp eq i8 %3, 0
  br i1 %4, label %5, label %_ZN24json11_internal_lightgbmL11static_nullEv.exit, !prof !5

5:                                                ; preds = %2
  %6 = tail call i32 @__cxa_guard_acquire(ptr nonnull @_ZGVZN24json11_internal_lightgbmL11static_nullEvE9json_null) #22
  %.not.i = icmp eq i32 %6, 0
  br i1 %.not.i, label %_ZN24json11_internal_lightgbmL11static_nullEv.exit, label %7

7:                                                ; preds = %5
  tail call void @_ZN24json11_internal_lightgbm4JsonC1Ev(ptr noundef nonnull align 8 dereferenceable(16) @_ZZN24json11_internal_lightgbmL11static_nullEvE9json_null) #22
  %8 = tail call i32 @__cxa_atexit(ptr nonnull @_ZN24json11_internal_lightgbm4JsonD2Ev, ptr nonnull @_ZZN24json11_internal_lightgbmL11static_nullEvE9json_null, ptr nonnull @__dso_handle) #22
  tail call void @__cxa_guard_release(ptr nonnull @_ZGVZN24json11_internal_lightgbmL11static_nullEvE9json_null) #22
  br label %_ZN24json11_internal_lightgbmL11static_nullEv.exit

_ZN24json11_internal_lightgbmL11static_nullEv.exit: ; preds = %2, %5, %7
  ret ptr @_ZZN24json11_internal_lightgbmL11static_nullEvE9json_null
}